; Function Attrs: nounwind uwtable
define dso_local i64 @pg_stat_get_db_checksum_last_failure(ptr noundef captures(none) %0) local_unnamed_addr #0 {
  %2 = getelementptr inbounds nuw i8, ptr %0, i64 32
  %3 = load i64, ptr %2, align 8
  %4 = tail call zeroext i1 @DataChecksumsEnabled() #9
  br i1 %4, label %5, label %.sink.split

5:                                                ; preds = %1
  %6 = trunc i64 %3 to i32
  %7 = tail call ptr @pgstat_fetch_stat_dbentry(i32 noundef %6) #9
  %8 = icmp eq ptr %7, null
  br i1 %8, label %.sink.split, label %9

9:                                                ; preds = %5
  %10 = getelementptr inbounds nuw i8, ptr %7, i64 160
  %11 = load i64, ptr %10, align 8
  %12 = icmp eq i64 %11, 0
  br i1 %12, label %.sink.split, label %14

.sink.split:                                      ; preds = %9, %5, %1
  %13 = getelementptr inbounds nuw i8, ptr %0, i64 28
  store i8 1, ptr %13, align 4
  br label %14

14:                                               ; preds = %.sink.split, %9
  %.0 = phi i64 [ %11, %9 ], [ 0, %.sink.split ]
  ret i64 %.0
}